; Function Attrs: mustprogress nofree norecurse nosync nounwind willreturn memory(argmem: read) uwtable
define noundef i32 @_ZN10open_spiel14dots_and_boxes4Move12GetCellRightEv(ptr nocapture noundef nonnull readonly align 4 dereferenceable(20) %0) local_unnamed_addr #7 align 2 {
  %2 = getelementptr inbounds nuw i8, ptr %0, i64 4
  %3 = load i32, ptr %2, align 4
  %4 = getelementptr inbounds nuw i8, ptr %0, i64 16
  %5 = load i32, ptr %4, align 4
  %6 = icmp eq i32 %3, %5
  br i1 %6, label %13, label %7

7:                                                ; preds = %1
  %8 = load i32, ptr %0, align 4
  %9 = add nsw i32 %5, 1
  %10 = mul nsw i32 %8, %9
  %11 = add nsw i32 %3, 1
  %12 = add nsw i32 %11, %10
  br label %13

13:                                               ; preds = %1, %7
  %.0 = phi i32 [ %12, %7 ], [ -1, %1 ]
  ret i32 %.0
}